target datalayout = "e-m:e-p270:32:32-p271:32:32-p272:64:64-i64:64-i128:128-f80:128-n8:16:32:64-S128"
target triple = "x86_64-pc-linux-gnu"

%struct.pkcs12_attr = type { ptr, ptr }

@enc_default = internal constant { i32, [4 x i8], ptr, i32, [4 x i8] } { i32 146, [4 x i8] zeroinitializer, ptr @.str.47, i32 1000, [4 x i8] zeroinitializer }, align 8
@ATTRS1 = internal constant [4 x %struct.pkcs12_attr] [%struct.pkcs12_attr { ptr @.str.56, ptr @.str.57 }, %struct.pkcs12_attr { ptr @.str.58, ptr @.str.59 }, %struct.pkcs12_attr { ptr @.str.60, ptr @.str.61 }, %struct.pkcs12_attr zeroinitializer], align 16
@mac_default = internal constant { i32, [4 x i8], ptr, i32, [4 x i8] } { i32 64, [4 x i8] zeroinitializer, ptr @.str.47, i32 1000, [4 x i8] zeroinitializer }, align 8
@.str.80 = private unnamed_addr constant [14 x i8] c"1cert1key.p12\00", align 1

; Function Attrs: nounwind uwtable
define internal i32 @test_cert_key_with_attrs_and_mac() #0 {
  %1 = alloca ptr, align 8
  call void @llvm.lifetime.start.p0(i64 8, ptr %1) #4
  %2 = call ptr @new_pkcs12_builder(ptr noundef @.str.80)
  store ptr %2, ptr %1, align 8, !tbaa !15
  %3 = load ptr, ptr %1, align 8, !tbaa !15
  call void @start_pkcs12(ptr noundef %3)
  %4 = load ptr, ptr %1, align 8, !tbaa !15
  call void @start_contentinfo(ptr noundef %4)
  %5 = load ptr, ptr %1, align 8, !tbaa !15
  call void @add_certbag(ptr noundef %5, ptr noundef @CERT1, i32 noundef 497, ptr noundef @ATTRS1)
  %6 = load ptr, ptr %1, align 8, !tbaa !15
  call void @add_keybag(ptr noundef %6, ptr noundef @KEY1, i32 noundef 609, ptr noundef @ATTRS1, ptr noundef @enc_default)
  %7 = load ptr, ptr %1, align 8, !tbaa !15
  call void @end_contentinfo(ptr noundef %7)
  %8 = load ptr, ptr %1, align 8, !tbaa !15
  call void @end_pkcs12_with_mac(ptr noundef %8, ptr noundef @mac_default)
  %9 = load ptr, ptr %1, align 8, !tbaa !15
  call void @start_check_pkcs12_with_mac(ptr noundef %9, ptr noundef @mac_default)
  %10 = load ptr, ptr %1, align 8, !tbaa !15
  call void @start_check_contentinfo(ptr noundef %10)
  %11 = load ptr, ptr %1, align 8, !tbaa !15
  call void @check_certbag(ptr noundef %11, ptr noundef @CERT1, i32 noundef 497, ptr noundef @ATTRS1)
  %12 = load ptr, ptr %1, align 8, !tbaa !15
  call void @check_keybag(ptr noundef %12, ptr noundef @KEY1, i32 noundef 609, ptr noundef @ATTRS1, ptr noundef @enc_default)
  %13 = load ptr, ptr %1, align 8, !tbaa !15
  call void @end_check_contentinfo(ptr noundef %13)
  %14 = load ptr, ptr %1, align 8, !tbaa !15
  call void @end_check_pkcs12(ptr noundef %14)
  %15 = load ptr, ptr %1, align 8, !tbaa !15
  %16 = call i32 @end_pkcs12_builder(ptr noundef %15)
  call void @llvm.lifetime.end.p0(i64 8, ptr %1) #4
  ret i32 %16
}